; ModuleID = '16/702.c'
source_filename = "16/702.c"
target datalayout = "e-m:e-p270:32:32-p271:32:32-p272:64:64-i64:64-f80:128-n8:16:32:64-S128"
target triple = "x86_64-pc-linux-gnu"

@.str = private unnamed_addr constant [3 x i8] c"%d\00", align 1
@.str.1 = private unnamed_addr constant [9 x i8] c"%d%d%d%d\00", align 1
@.str.2 = private unnamed_addr constant [7 x i8] c"%d%d%d\00", align 1
@.str.3 = private unnamed_addr constant [5 x i8] c"%d%d\00", align 1

; Function Attrs: noinline nounwind uwtable
define dso_local i32 @main() #0 {
  %1 = alloca i32, align 4
  %2 = alloca i32, align 4
  %3 = alloca i32, align 4
  %4 = alloca i32, align 4
  %5 = alloca i32, align 4
  %6 = alloca i32, align 4
  %7 = alloca i32, align 4
  %8 = alloca i32, align 4
  %9 = alloca i32, align 4
  store i32 0, i32* %1, align 4
  %10 = call i32 (i8*, ...) @__isoc99_scanf(i8* getelementptr inbounds ([3 x i8], [3 x i8]* @.str, i64 0, i64 0), i32* %2)
  %11 = load i32, i32* %2, align 4
  %12 = srem i32 %11, 10
  store i32 %12, i32* %3, align 4
  %13 = load i32, i32* %2, align 4
  %14 = sdiv i32 %13, 10
  store i32 %14, i32* %4, align 4
  %15 = load i32, i32* %4, align 4
  %16 = icmp sgt i32 %15, 0
  br i1 %16, label %17, label %50

17:                                               ; preds = %0
  %18 = load i32, i32* %4, align 4
  %19 = srem i32 %18, 10
  store i32 %19, i32* %5, align 4
  %20 = load i32, i32* %4, align 4
  %21 = sdiv i32 %20, 10
  store i32 %21, i32* %6, align 4
  %22 = load i32, i32* %6, align 4
  %23 = icmp sgt i32 %22, 0
  br i1 %23, label %24, label %45

24:                                               ; preds = %17
  %25 = load i32, i32* %6, align 4
  %26 = srem i32 %25, 10
  store i32 %26, i32* %7, align 4
  %27 = load i32, i32* %6, align 4
  %28 = sdiv i32 %27, 10
  store i32 %28, i32* %8, align 4
  %29 = load i32, i32* %8, align 4
  %30 = icmp sgt i32 %29, 0
  br i1 %30, label %31, label %39

31:                                               ; preds = %24
  %32 = load i32, i32* %8, align 4
  %33 = srem i32 %32, 10
  store i32 %33, i32* %9, align 4
  %34 = load i32, i32* %3, align 4
  %35 = load i32, i32* %5, align 4
  %36 = load i32, i32* %7, align 4
  %37 = load i32, i32* %9, align 4
  %38 = call i32 (i8*, ...) @printf(i8* getelementptr inbounds ([9 x i8], [9 x i8]* @.str.1, i64 0, i64 0), i32 %34, i32 %35, i32 %36, i32 %37)
  br label %44

39:                                               ; preds = %24
  %40 = load i32, i32* %3, align 4
  %41 = load i32, i32* %5, align 4
  %42 = load i32, i32* %7, align 4
  %43 = call i32 (i8*, ...) @printf(i8* getelementptr inbounds ([7 x i8], [7 x i8]* @.str.2, i64 0, i64 0), i32 %40, i32 %41, i32 %42)
  br label %44

44:                                               ; preds = %39, %31
  br label %49

45:                                               ; preds = %17
  %46 = load i32, i32* %3, align 4
  %47 = load i32, i32* %5, align 4
  %48 = call i32 (i8*, ...) @printf(i8* getelementptr inbounds ([5 x i8], [5 x i8]* @.str.3, i64 0, i64 0), i32 %46, i32 %47)
  br label %49

49:                                               ; preds = %45, %44
  br label %53

50:                                               ; preds = %0
  %51 = load i32, i32* %3, align 4
  %52 = call i32 (i8*, ...) @printf(i8* getelementptr inbounds ([3 x i8], [3 x i8]* @.str, i64 0, i64 0), i32 %51)
  br label %53

53:                                               ; preds = %50, %49
  ret i32 0
}

declare dso_local i32 @__isoc99_scanf(i8*, ...) #1

declare dso_local i32 @printf(i8*, ...) #1


!llvm.module.flags = !{!0}
!llvm.ident = !{!1}

!0 = !{i32 1, !"wchar_size", i32 4}
!1 = !{!"clang version 10.0.0-4ubuntu1 "}
